; Function Attrs: mustprogress uwtable
define internal void @"_ZN9QtPrivate18QFunctorSlotObjectIZN10PacketListC1EP7QWidgetE3$_0Li0ENS_4ListIJEEEvE4implEiPNS_15QSlotObjectBaseEP7QObjectPPvPb"(i32 noundef %0, ptr noundef %1, ptr nocapture readnone %2, ptr nocapture readnone %3, ptr nocapture readnone %4) #0 align 2 {
  switch i32 %0, label %"_ZN9QtPrivate7FunctorIZN10PacketListC1EP7QWidgetE3$_0Li0EE4callINS_4ListIJEEEvEEvRS4_PvPSA_.exit" [
    i32 0, label %6
    i32 1, label %9
  ]

6:                                                ; preds = %5
  %7 = icmp eq ptr %1, null
  br i1 %7, label %"_ZN9QtPrivate7FunctorIZN10PacketListC1EP7QWidgetE3$_0Li0EE4callINS_4ListIJEEEvEEvRS4_PvPSA_.exit", label %8

8:                                                ; preds = %6
  tail call void @_ZdlPv(ptr noundef nonnull %1) #22
  br label %"_ZN9QtPrivate7FunctorIZN10PacketListC1EP7QWidgetE3$_0Li0EE4callINS_4ListIJEEEvEEvRS4_PvPSA_.exit"

9:                                                ; preds = %5
  %10 = getelementptr inbounds i8, ptr %1, i64 16
  %.val = load ptr, ptr %10, align 8
  %11 = load i32, ptr getelementptr inbounds (%struct._e_prefs, ptr @prefs, i64 0, i32 98), align 8
  %12 = tail call i32 @llvm.umin.i32(i32 %11, i32 2147483647)
  %13 = zext nneg i32 %12 to i64
  store i64 %13, ptr getelementptr inbounds (%class.QCache, ptr @_ZN16PacketListRecord15col_text_cache_E, i64 0, i32 2), align 8
  tail call void @_ZN6QCacheIj5QListI7QStringEE4trimEx(ptr noundef nonnull align 8 dereferenceable(72) @_ZN16PacketListRecord15col_text_cache_E, i64 noundef %13) #20
  %14 = load i32, ptr getelementptr inbounds (%struct._e_prefs, ptr @prefs, i64 0, i32 97), align 4
  %15 = tail call noundef zeroext i1 @_ZNK9QTreeView16isSortingEnabledEv(ptr noundef nonnull align 8 dereferenceable(40) %.val)
  %16 = icmp eq i32 %14, 0
  %.not.i.i.i = xor i1 %16, %15
  br i1 %.not.i.i.i, label %"_ZN9QtPrivate7FunctorIZN10PacketListC1EP7QWidgetE3$_0Li0EE4callINS_4ListIJEEEvEEvRS4_PvPSA_.exit", label %17

17:                                               ; preds = %9
  %18 = load i32, ptr getelementptr inbounds (%struct._e_prefs, ptr @prefs, i64 0, i32 97), align 4
  %19 = icmp ne i32 %18, 0
  tail call void @_ZN9QTreeView17setSortingEnabledEb(ptr noundef nonnull align 8 dereferenceable(40) %.val, i1 noundef zeroext %19)
  br label %"_ZN9QtPrivate7FunctorIZN10PacketListC1EP7QWidgetE3$_0Li0EE4callINS_4ListIJEEEvEEvRS4_PvPSA_.exit"

"_ZN9QtPrivate7FunctorIZN10PacketListC1EP7QWidgetE3$_0Li0EE4callINS_4ListIJEEEvEEvRS4_PvPSA_.exit": ; preds = %17, %9, %6, %8, %5
  ret void
}